; Function Attrs: mustprogress uwtable
define hidden noalias noundef ptr @_Z12if_no_proofsP6tactic(ptr noundef %t) local_unnamed_addr #3 personality ptr @__gxx_personality_v0 {
entry:
  %call = tail call noalias noundef ptr @_ZN6memory8allocateEm(i64 noundef 24)
  %m_ref_count.i.i.i = getelementptr inbounds i8, ptr %call, i64 8
  store i32 0, ptr %m_ref_count.i.i.i, align 8
  %m_t.i.i = getelementptr inbounds i8, ptr %call, i64 16
  store ptr %t, ptr %m_t.i.i, align 8
  %tobool.not.i.i.i.i = icmp eq ptr %t, null
  br i1 %tobool.not.i.i.i.i, label %_ZN21if_no_proofs_tacticalC2EP6tactic.exit, label %if.then.i.i.i.i

if.then.i.i.i.i:                                  ; preds = %entry
  %m_ref_count.i.i.i.i.i = getelementptr inbounds i8, ptr %t, i64 8
  %0 = load i32, ptr %m_ref_count.i.i.i.i.i, align 8
  %inc.i.i.i.i.i = add i32 %0, 1
  store i32 %inc.i.i.i.i.i, ptr %m_ref_count.i.i.i.i.i, align 8
  br label %_ZN21if_no_proofs_tacticalC2EP6tactic.exit

_ZN21if_no_proofs_tacticalC2EP6tactic.exit:       ; preds = %entry, %if.then.i.i.i.i
  store ptr getelementptr inbounds ({ [25 x ptr] }, ptr @_ZTV21if_no_proofs_tactical, i64 0, i32 0, i64 2), ptr %call, align 8
  ret ptr %call
}